; Function Attrs: mustprogress uwtable
define dso_local void @_ZN3net19SourceAddressTokens21CheckTypeAndMergeFromERKN6google8protobuf11MessageLiteE(ptr noundef nonnull align 8 dereferenceable(56) %this, ptr noundef nonnull align 8 dereferenceable(8) %from) unnamed_addr #1 align 2 {
entry:
  %cmp.i = icmp eq ptr %from, %this
  br i1 %cmp.i, label %if.then.i, label %if.end.i

if.then.i:                                        ; preds = %entry
  tail call fastcc void @_ZN3net12_GLOBAL__N_113MergeFromFailEi(i32 noundef 693)
  br label %if.end.i

if.end.i:                                         ; preds = %if.then.i, %entry
  %tokens_.i = getelementptr inbounds i8, ptr %this, i64 32
  %tokens_2.i = getelementptr inbounds i8, ptr %from, i64 32
  tail call void @_ZN6google8protobuf8internal20RepeatedPtrFieldBase9MergeFromINS0_16RepeatedPtrFieldIN3net18SourceAddressTokenEE11TypeHandlerEEEvRKS2_(ptr noundef nonnull align 8 dereferenceable(24) %tokens_.i, ptr noundef nonnull align 8 dereferenceable(24) %tokens_2.i)
  %_unknown_fields_.i.i = getelementptr inbounds i8, ptr %from, i64 8
  %0 = load ptr, ptr %_unknown_fields_.i.i, align 8
  %call3.i = tail call noundef zeroext i1 @_ZNKSt7__cxx1112basic_stringIcSt11char_traitsIcESaIcEE5emptyEv(ptr noundef nonnull align 8 dereferenceable(32) %0) #14
  br i1 %call3.i, label %_ZN3net19SourceAddressTokens9MergeFromERKS0_.exit, label %if.then4.i

if.then4.i:                                       ; preds = %if.end.i
  %_unknown_fields_.i4.i = getelementptr inbounds i8, ptr %this, i64 8
  %1 = load ptr, ptr @_ZN6google8protobuf8internal13empty_string_B5cxx11E, align 8
  %call2.i.i = tail call noundef ptr @_ZN6google8protobuf8internal14ArenaStringPtr14MutableNoArenaEPKNSt7__cxx1112basic_stringIcSt11char_traitsIcESaIcEEE(ptr noundef nonnull align 8 dereferenceable(8) %_unknown_fields_.i4.i, ptr noundef nonnull %1)
  %2 = load ptr, ptr %_unknown_fields_.i.i, align 8
  %call7.i = tail call noundef nonnull align 8 dereferenceable(32) ptr @_ZNSt7__cxx1112basic_stringIcSt11char_traitsIcESaIcEE6appendERKS4_(ptr noundef nonnull align 8 dereferenceable(32) %call2.i.i, ptr noundef nonnull align 8 dereferenceable(32) %2)
  br label %_ZN3net19SourceAddressTokens9MergeFromERKS0_.exit

_ZN3net19SourceAddressTokens9MergeFromERKS0_.exit: ; preds = %if.end.i, %if.then4.i
  ret void
}